target datalayout = "e-m:e-p270:32:32-p271:32:32-p272:64:64-i64:64-i128:128-f80:128-n8:16:32:64-S128"
target triple = "x86_64-pc-linux-gnu"

%struct.AVComponentDescriptor = type { i32, i32, i32, i32, i32 }
%struct.AVPixFmtDescriptor = type { ptr, i8, i8, i8, i64, [4 x %struct.AVComponentDescriptor], ptr }

; Function Attrs: nounwind uwtable
define ptr @av_pix_fmt_desc_next(ptr noundef %0) #0 {
  %2 = alloca ptr, align 8
  %3 = alloca ptr, align 8
  store ptr %0, ptr %3, align 8, !tbaa !13
  %4 = load ptr, ptr %3, align 8, !tbaa !13
  %5 = icmp ne ptr %4, null
  br i1 %5, label %7, label %6

6:                                                ; preds = %1
  store ptr @av_pix_fmt_descriptors, ptr %2, align 8
  br label %25

7:                                                ; preds = %1
  br label %8

8:                                                ; preds = %23, %7
  %9 = load ptr, ptr %3, align 8, !tbaa !13
  %10 = ptrtoint ptr %9 to i64
  %11 = sub i64 %10, ptrtoint (ptr @av_pix_fmt_descriptors to i64)
  %12 = sdiv exact i64 %11, 112
  %13 = icmp ult i64 %12, 257
  br i1 %13, label %14, label %24

14:                                               ; preds = %8
  %15 = load ptr, ptr %3, align 8, !tbaa !13
  %16 = getelementptr inbounds nuw %struct.AVPixFmtDescriptor, ptr %15, i32 1
  store ptr %16, ptr %3, align 8, !tbaa !13
  %17 = load ptr, ptr %3, align 8, !tbaa !13
  %18 = getelementptr inbounds nuw %struct.AVPixFmtDescriptor, ptr %17, i32 0, i32 0
  %19 = load ptr, ptr %18, align 8, !tbaa !42
  %20 = icmp ne ptr %19, null
  br i1 %20, label %21, label %23

21:                                               ; preds = %14
  %22 = load ptr, ptr %3, align 8, !tbaa !13
  store ptr %22, ptr %2, align 8
  br label %25

23:                                               ; preds = %14
  br label %8, !llvm.loop !53

24:                                               ; preds = %8
  store ptr null, ptr %2, align 8
  br label %25

25:                                               ; preds = %24, %21, %6
  %26 = load ptr, ptr %2, align 8
  ret ptr %26
}