; Function Attrs: nofree norecurse nosync nounwind memory(argmem: read) uwtable
define noundef ptr @av_pix_fmt_desc_next(ptr noundef %0) local_unnamed_addr #7 {
  %.not = icmp eq ptr %0, null
  br i1 %.not, label %.loopexit, label %.preheader

.preheader:                                       ; preds = %1, %6
  %.0 = phi ptr [ %7, %6 ], [ %0, %1 ]
  %2 = ptrtoint ptr %.0 to i64
  %3 = sub i64 %2, ptrtoint (ptr @av_pix_fmt_descriptors to i64)
  %4 = sdiv exact i64 %3, 112
  %5 = icmp ult i64 %4, 257
  br i1 %5, label %6, label %.loopexit

6:                                                ; preds = %.preheader
  %7 = getelementptr inbounds nuw i8, ptr %.0, i64 112
  %8 = load ptr, ptr %7, align 8, !tbaa !25
  %.not8 = icmp eq ptr %8, null
  br i1 %.not8, label %.preheader, label %.loopexit, !llvm.loop !38

.loopexit:                                        ; preds = %.preheader, %6, %1
  %.06 = phi ptr [ @av_pix_fmt_descriptors, %1 ], [ null, %.preheader ], [ %7, %6 ]
  ret ptr %.06
}